; Function Attrs: nounwind uwtable
define i32 @Gia_ManComputeOneWin(ptr noundef captures(none) %0, i32 noundef %1, ptr noundef writeonly captures(none) %2, ptr noundef writeonly captures(none) %3, ptr noundef writeonly captures(none) %4, ptr noundef writeonly captures(none) %5) local_unnamed_addr #0 {
  %7 = getelementptr inbounds nuw i8, ptr %0, i64 296
  %8 = load ptr, ptr %7, align 8, !tbaa !106
  %9 = icmp eq i32 %1, -1
  br i1 %9, label %10, label %11

10:                                               ; preds = %6
  tail call void @Spl_ManStop(ptr noundef %8)
  store ptr null, ptr %7, align 8, !tbaa !106
  br label %24

11:                                               ; preds = %6
  %12 = tail call i32 @Spl_ManComputeOne(ptr noundef %8, i32 noundef %1)
  %.not = icmp eq i32 %12, 0
  br i1 %.not, label %13, label %14

13:                                               ; preds = %11
  store ptr null, ptr %2, align 8, !tbaa !69
  store ptr null, ptr %3, align 8, !tbaa !69
  store ptr null, ptr %4, align 8, !tbaa !69
  store ptr null, ptr %5, align 8, !tbaa !69
  br label %24

14:                                               ; preds = %11
  %15 = getelementptr inbounds nuw i8, ptr %8, i64 56
  %16 = load ptr, ptr %15, align 8, !tbaa !56
  store ptr %16, ptr %2, align 8, !tbaa !69
  %17 = getelementptr inbounds nuw i8, ptr %8, i64 64
  %18 = load ptr, ptr %17, align 8, !tbaa !57
  store ptr %18, ptr %3, align 8, !tbaa !69
  %19 = getelementptr inbounds nuw i8, ptr %8, i64 72
  %20 = load ptr, ptr %19, align 8, !tbaa !58
  store ptr %20, ptr %4, align 8, !tbaa !69
  %21 = getelementptr inbounds nuw i8, ptr %8, i64 80
  %22 = load ptr, ptr %21, align 8, !tbaa !59
  store ptr %22, ptr %5, align 8, !tbaa !69
  %23 = getelementptr i8, ptr %22, i64 4
  %.val = load i32, ptr %23, align 4, !tbaa !35
  br label %24

24:                                               ; preds = %14, %13, %10
  %.0 = phi i32 [ 0, %10 ], [ %.val, %14 ], [ 0, %13 ]
  ret i32 %.0
}